; Function Attrs: nounwind sspstrong uwtable
define internal noundef zeroext i1 @exportable_string_get_memory_view(i64 noundef %0, ptr noundef %1, i32 %2) #0 {
  %4 = load i64, ptr @id_str, align 8, !tbaa !6
  %5 = tail call i64 @rb_ivar_get(i64 noundef %0, i64 noundef %4) #9
  %6 = inttoptr i64 %5 to ptr
  %7 = load i64, ptr %6, align 8, !tbaa !39, !noalias !54
  %8 = and i64 %7, 8192
  %.not.i.i = icmp eq i64 %8, 0
  %9 = getelementptr inbounds nuw i8, ptr %6, i64 24
  br i1 %.not.i.i, label %RSTRING_PTR.exit, label %10

10:                                               ; preds = %3
  %.sroa.2.0.copyload.i = load ptr, ptr %9, align 8
  br label %RSTRING_PTR.exit

RSTRING_PTR.exit:                                 ; preds = %3, %10
  %.sroa.2.0.i = phi ptr [ %.sroa.2.0.copyload.i, %10 ], [ %9, %3 ]
  %11 = getelementptr inbounds nuw i8, ptr %6, i64 16
  %12 = load i64, ptr %11, align 8, !tbaa !57
  %13 = tail call zeroext i1 @rb_memory_view_init_as_byte_array(ptr noundef %1, i64 noundef %0, ptr noundef %.sroa.2.0.i, i64 noundef %12, i1 noundef zeroext true) #12
  ret i1 true
}